target datalayout = "e-m:e-p270:32:32-p271:32:32-p272:64:64-i64:64-i128:128-f80:128-n8:16:32:64-S128"
target triple = "x86_64-pc-linux-gnu"

@crc32c_table_little = internal global [8 x [256 x i32]] zeroinitializer, align 16

; Function Attrs: nounwind uwtable
define internal void @crc32c_init_sw_little() #0 {
  %1 = alloca i32, align 4
  %2 = alloca i32, align 4
  %3 = alloca i32, align 4
  %4 = alloca i32, align 4
  %5 = alloca i32, align 4
  %6 = alloca i32, align 4
  call void @llvm.lifetime.start.p0(i64 4, ptr %1) #5
  store i32 0, ptr %1, align 4, !tbaa !4
  br label %7

7:                                                ; preds = %113, %0
  %8 = load i32, ptr %1, align 4, !tbaa !4
  %9 = icmp ult i32 %8, 256
  br i1 %9, label %11, label %10

10:                                               ; preds = %7
  call void @llvm.lifetime.end.p0(i64 4, ptr %1) #5
  br label %116

11:                                               ; preds = %7
  call void @llvm.lifetime.start.p0(i64 4, ptr %2) #5
  %12 = load i32, ptr %1, align 4, !tbaa !4
  store i32 %12, ptr %2, align 4, !tbaa !4
  %13 = load i32, ptr %2, align 4, !tbaa !4
  %14 = and i32 %13, 1
  %15 = icmp ne i32 %14, 0
  br i1 %15, label %16, label %20

16:                                               ; preds = %11
  %17 = load i32, ptr %2, align 4, !tbaa !4
  %18 = lshr i32 %17, 1
  %19 = xor i32 %18, -2097792136
  br label %23

20:                                               ; preds = %11
  %21 = load i32, ptr %2, align 4, !tbaa !4
  %22 = lshr i32 %21, 1
  br label %23

23:                                               ; preds = %20, %16
  %24 = phi i32 [ %19, %16 ], [ %22, %20 ]
  store i32 %24, ptr %2, align 4, !tbaa !4
  %25 = load i32, ptr %2, align 4, !tbaa !4
  %26 = and i32 %25, 1
  %27 = icmp ne i32 %26, 0
  br i1 %27, label %28, label %32

28:                                               ; preds = %23
  %29 = load i32, ptr %2, align 4, !tbaa !4
  %30 = lshr i32 %29, 1
  %31 = xor i32 %30, -2097792136
  br label %35

32:                                               ; preds = %23
  %33 = load i32, ptr %2, align 4, !tbaa !4
  %34 = lshr i32 %33, 1
  br label %35

35:                                               ; preds = %32, %28
  %36 = phi i32 [ %31, %28 ], [ %34, %32 ]
  store i32 %36, ptr %2, align 4, !tbaa !4
  %37 = load i32, ptr %2, align 4, !tbaa !4
  %38 = and i32 %37, 1
  %39 = icmp ne i32 %38, 0
  br i1 %39, label %40, label %44

40:                                               ; preds = %35
  %41 = load i32, ptr %2, align 4, !tbaa !4
  %42 = lshr i32 %41, 1
  %43 = xor i32 %42, -2097792136
  br label %47

44:                                               ; preds = %35
  %45 = load i32, ptr %2, align 4, !tbaa !4
  %46 = lshr i32 %45, 1
  br label %47

47:                                               ; preds = %44, %40
  %48 = phi i32 [ %43, %40 ], [ %46, %44 ]
  store i32 %48, ptr %2, align 4, !tbaa !4
  %49 = load i32, ptr %2, align 4, !tbaa !4
  %50 = and i32 %49, 1
  %51 = icmp ne i32 %50, 0
  br i1 %51, label %52, label %56

52:                                               ; preds = %47
  %53 = load i32, ptr %2, align 4, !tbaa !4
  %54 = lshr i32 %53, 1
  %55 = xor i32 %54, -2097792136
  br label %59

56:                                               ; preds = %47
  %57 = load i32, ptr %2, align 4, !tbaa !4
  %58 = lshr i32 %57, 1
  br label %59

59:                                               ; preds = %56, %52
  %60 = phi i32 [ %55, %52 ], [ %58, %56 ]
  store i32 %60, ptr %2, align 4, !tbaa !4
  %61 = load i32, ptr %2, align 4, !tbaa !4
  %62 = and i32 %61, 1
  %63 = icmp ne i32 %62, 0
  br i1 %63, label %64, label %68

64:                                               ; preds = %59
  %65 = load i32, ptr %2, align 4, !tbaa !4
  %66 = lshr i32 %65, 1
  %67 = xor i32 %66, -2097792136
  br label %71

68:                                               ; preds = %59
  %69 = load i32, ptr %2, align 4, !tbaa !4
  %70 = lshr i32 %69, 1
  br label %71

71:                                               ; preds = %68, %64
  %72 = phi i32 [ %67, %64 ], [ %70, %68 ]
  store i32 %72, ptr %2, align 4, !tbaa !4
  %73 = load i32, ptr %2, align 4, !tbaa !4
  %74 = and i32 %73, 1
  %75 = icmp ne i32 %74, 0
  br i1 %75, label %76, label %80

76:                                               ; preds = %71
  %77 = load i32, ptr %2, align 4, !tbaa !4
  %78 = lshr i32 %77, 1
  %79 = xor i32 %78, -2097792136
  br label %83

80:                                               ; preds = %71
  %81 = load i32, ptr %2, align 4, !tbaa !4
  %82 = lshr i32 %81, 1
  br label %83

83:                                               ; preds = %80, %76
  %84 = phi i32 [ %79, %76 ], [ %82, %80 ]
  store i32 %84, ptr %2, align 4, !tbaa !4
  %85 = load i32, ptr %2, align 4, !tbaa !4
  %86 = and i32 %85, 1
  %87 = icmp ne i32 %86, 0
  br i1 %87, label %88, label %92

88:                                               ; preds = %83
  %89 = load i32, ptr %2, align 4, !tbaa !4
  %90 = lshr i32 %89, 1
  %91 = xor i32 %90, -2097792136
  br label %95

92:                                               ; preds = %83
  %93 = load i32, ptr %2, align 4, !tbaa !4
  %94 = lshr i32 %93, 1
  br label %95

95:                                               ; preds = %92, %88
  %96 = phi i32 [ %91, %88 ], [ %94, %92 ]
  store i32 %96, ptr %2, align 4, !tbaa !4
  %97 = load i32, ptr %2, align 4, !tbaa !4
  %98 = and i32 %97, 1
  %99 = icmp ne i32 %98, 0
  br i1 %99, label %100, label %104

100:                                              ; preds = %95
  %101 = load i32, ptr %2, align 4, !tbaa !4
  %102 = lshr i32 %101, 1
  %103 = xor i32 %102, -2097792136
  br label %107

104:                                              ; preds = %95
  %105 = load i32, ptr %2, align 4, !tbaa !4
  %106 = lshr i32 %105, 1
  br label %107

107:                                              ; preds = %104, %100
  %108 = phi i32 [ %103, %100 ], [ %106, %104 ]
  store i32 %108, ptr %2, align 4, !tbaa !4
  %109 = load i32, ptr %2, align 4, !tbaa !4
  %110 = load i32, ptr %1, align 4, !tbaa !4
  %111 = zext i32 %110 to i64
  %112 = getelementptr inbounds nuw [256 x i32], ptr @crc32c_table_little, i64 0, i64 %111
  store i32 %109, ptr %112, align 4, !tbaa !4
  call void @llvm.lifetime.end.p0(i64 4, ptr %2) #5
  br label %113

113:                                              ; preds = %107
  %114 = load i32, ptr %1, align 4, !tbaa !4
  %115 = add i32 %114, 1
  store i32 %115, ptr %1, align 4, !tbaa !4
  br label %7, !llvm.loop !32

116:                                              ; preds = %10
  call void @llvm.lifetime.start.p0(i64 4, ptr %3) #5
  store i32 0, ptr %3, align 4, !tbaa !4
  br label %117

117:                                              ; preds = %150, %116
  %118 = load i32, ptr %3, align 4, !tbaa !4
  %119 = icmp ult i32 %118, 256
  br i1 %119, label %121, label %120

120:                                              ; preds = %117
  store i32 5, ptr %4, align 4
  call void @llvm.lifetime.end.p0(i64 4, ptr %3) #5
  br label %153

121:                                              ; preds = %117
  call void @llvm.lifetime.start.p0(i64 4, ptr %5) #5
  %122 = load i32, ptr %3, align 4, !tbaa !4
  %123 = zext i32 %122 to i64
  %124 = getelementptr inbounds nuw [256 x i32], ptr @crc32c_table_little, i64 0, i64 %123
  %125 = load i32, ptr %124, align 4, !tbaa !4
  store i32 %125, ptr %5, align 4, !tbaa !4
  call void @llvm.lifetime.start.p0(i64 4, ptr %6) #5
  store i32 1, ptr %6, align 4, !tbaa !4
  br label %126

126:                                              ; preds = %146, %121
  %127 = load i32, ptr %6, align 4, !tbaa !4
  %128 = icmp ult i32 %127, 8
  br i1 %128, label %130, label %129

129:                                              ; preds = %126
  store i32 8, ptr %4, align 4
  call void @llvm.lifetime.end.p0(i64 4, ptr %6) #5
  br label %149

130:                                              ; preds = %126
  %131 = load i32, ptr %5, align 4, !tbaa !4
  %132 = and i32 %131, 255
  %133 = zext i32 %132 to i64
  %134 = getelementptr inbounds nuw [256 x i32], ptr @crc32c_table_little, i64 0, i64 %133
  %135 = load i32, ptr %134, align 4, !tbaa !4
  %136 = load i32, ptr %5, align 4, !tbaa !4
  %137 = lshr i32 %136, 8
  %138 = xor i32 %135, %137
  store i32 %138, ptr %5, align 4, !tbaa !4
  %139 = load i32, ptr %5, align 4, !tbaa !4
  %140 = load i32, ptr %6, align 4, !tbaa !4
  %141 = zext i32 %140 to i64
  %142 = getelementptr inbounds nuw [8 x [256 x i32]], ptr @crc32c_table_little, i64 0, i64 %141
  %143 = load i32, ptr %3, align 4, !tbaa !4
  %144 = zext i32 %143 to i64
  %145 = getelementptr inbounds nuw [256 x i32], ptr %142, i64 0, i64 %144
  store i32 %139, ptr %145, align 4, !tbaa !4
  br label %146

146:                                              ; preds = %130
  %147 = load i32, ptr %6, align 4, !tbaa !4
  %148 = add i32 %147, 1
  store i32 %148, ptr %6, align 4, !tbaa !4
  br label %126, !llvm.loop !33

149:                                              ; preds = %129
  call void @llvm.lifetime.end.p0(i64 4, ptr %5) #5
  br label %150

150:                                              ; preds = %149
  %151 = load i32, ptr %3, align 4, !tbaa !4
  %152 = add i32 %151, 1
  store i32 %152, ptr %3, align 4, !tbaa !4
  br label %117, !llvm.loop !34

153:                                              ; preds = %120
  ret void
}