; Function Attrs: nofree norecurse nosync nounwind memory(readwrite, argmem: none, inaccessiblemem: none) uwtable
define internal void @crc32c_init_sw_little() #4 {
  br label %1

1:                                                ; preds = %0, %1
  %indvars.iv = phi i64 [ 0, %0 ], [ %indvars.iv.next, %1 ]
  %2 = trunc nuw nsw i64 %indvars.iv to i32
  %3 = and i32 %2, 1
  %.not = icmp eq i32 %3, 0
  %4 = lshr i32 %2, 1
  %5 = xor i32 %4, -2097792136
  %6 = select i1 %.not, i32 %4, i32 %5
  %7 = and i32 %6, 1
  %.not42 = icmp eq i32 %7, 0
  %8 = lshr i32 %6, 1
  %9 = xor i32 %8, -2097792136
  %10 = select i1 %.not42, i32 %8, i32 %9
  %11 = and i32 %10, 1
  %.not43 = icmp eq i32 %11, 0
  %12 = lshr i32 %10, 1
  %13 = xor i32 %12, -2097792136
  %14 = select i1 %.not43, i32 %12, i32 %13
  %15 = and i32 %14, 1
  %.not44 = icmp eq i32 %15, 0
  %16 = lshr i32 %14, 1
  %17 = xor i32 %16, -2097792136
  %18 = select i1 %.not44, i32 %16, i32 %17
  %19 = and i32 %18, 1
  %.not45 = icmp eq i32 %19, 0
  %20 = lshr i32 %18, 1
  %21 = xor i32 %20, -2097792136
  %22 = select i1 %.not45, i32 %20, i32 %21
  %23 = and i32 %22, 1
  %.not46 = icmp eq i32 %23, 0
  %24 = lshr i32 %22, 1
  %25 = xor i32 %24, -2097792136
  %26 = select i1 %.not46, i32 %24, i32 %25
  %27 = and i32 %26, 1
  %.not47 = icmp eq i32 %27, 0
  %28 = lshr i32 %26, 1
  %29 = xor i32 %28, -2097792136
  %30 = select i1 %.not47, i32 %28, i32 %29
  %31 = and i32 %30, 1
  %.not48 = icmp eq i32 %31, 0
  %32 = lshr i32 %30, 1
  %33 = xor i32 %32, -2097792136
  %34 = select i1 %.not48, i32 %32, i32 %33
  %35 = getelementptr inbounds nuw [256 x i32], ptr @crc32c_table_little, i64 0, i64 %indvars.iv
  store i32 %34, ptr %35, align 4, !tbaa !14
  %indvars.iv.next = add nuw nsw i64 %indvars.iv, 1
  %exitcond.not = icmp eq i64 %indvars.iv.next, 256
  br i1 %exitcond.not, label %.preheader, label %1, !llvm.loop !30

36:                                               ; preds = %39
  ret void

.preheader:                                       ; preds = %1, %39
  %indvars.iv58 = phi i64 [ %indvars.iv.next59, %39 ], [ 0, %1 ]
  %37 = getelementptr inbounds nuw [256 x i32], ptr @crc32c_table_little, i64 0, i64 %indvars.iv58
  %38 = load i32, ptr %37, align 4, !tbaa !14
  br label %40

39:                                               ; preds = %40
  %indvars.iv.next59 = add nuw nsw i64 %indvars.iv58, 1
  %exitcond61.not = icmp eq i64 %indvars.iv.next59, 256
  br i1 %exitcond61.not, label %36, label %.preheader, !llvm.loop !31

40:                                               ; preds = %.preheader, %40
  %indvars.iv54 = phi i64 [ 1, %.preheader ], [ %indvars.iv.next55, %40 ]
  %.03950 = phi i32 [ %38, %.preheader ], [ %46, %40 ]
  %41 = and i32 %.03950, 255
  %42 = zext nneg i32 %41 to i64
  %43 = getelementptr inbounds nuw [256 x i32], ptr @crc32c_table_little, i64 0, i64 %42
  %44 = load i32, ptr %43, align 4, !tbaa !14
  %45 = lshr i32 %.03950, 8
  %46 = xor i32 %44, %45
  %47 = getelementptr inbounds nuw [8 x [256 x i32]], ptr @crc32c_table_little, i64 0, i64 %indvars.iv54, i64 %indvars.iv58
  store i32 %46, ptr %47, align 4, !tbaa !14
  %indvars.iv.next55 = add nuw nsw i64 %indvars.iv54, 1
  %exitcond57.not = icmp eq i64 %indvars.iv.next55, 8
  br i1 %exitcond57.not, label %39, label %40, !llvm.loop !32
}